; Function Attrs: mustprogress uwtable
define i32 @AnalyseAllPlaysBin(ptr noundef %0, ptr noundef %1, ptr noundef %2, i32 noundef %3) local_unnamed_addr #3 {
  store i32 0, ptr getelementptr inbounds nuw (i8, ptr @playparam, i64 24), align 8
  %5 = load i32, ptr %0, align 4
  %6 = icmp sgt i32 %5, 200
  br i1 %6, label %16, label %7

7:                                                ; preds = %4
  %8 = load i32, ptr %1, align 4
  %.not = icmp eq i32 %5, %8
  br i1 %.not, label %9, label %16

9:                                                ; preds = %7
  store ptr %0, ptr getelementptr inbounds nuw (i8, ptr @playparam, i64 8), align 8
  store ptr %1, ptr getelementptr inbounds nuw (i8, ptr @traceparam, i64 8), align 8
  %10 = load i32, ptr %0, align 4
  store i32 %10, ptr @playparam, align 8
  store i32 %10, ptr @traceparam, align 8
  store ptr %2, ptr getelementptr inbounds nuw (i8, ptr @traceparam, i64 16), align 8
  tail call void @_ZN9Scheduler11RegisterRunE7RunModeRK6boardsRK13playTracesBin(ptr noundef nonnull align 8 dereferenceable(43416) @scheduler, i32 noundef 2, ptr noundef nonnull align 4 dereferenceable(21604) %0, ptr noundef nonnull align 4 dereferenceable(84004) %1)
  %11 = tail call noundef i32 @_ZN6System11RegisterRunE7RunModeRK6boards(ptr noundef nonnull align 8 dereferenceable(200) @sysdep, i32 noundef 2, ptr noundef nonnull align 4 dereferenceable(21604) %0)
  %12 = tail call noundef i32 @_ZN6System10RunThreadsEv(ptr noundef nonnull align 8 dereferenceable(200) @sysdep)
  %.not18 = icmp eq i32 %12, 1
  br i1 %.not18, label %13, label %16

13:                                               ; preds = %9
  %14 = load i32, ptr %0, align 4
  store i32 %14, ptr %2, align 4
  %15 = load i32, ptr getelementptr inbounds nuw (i8, ptr @playparam, i64 24), align 8
  %. = tail call i32 @llvm.umax.i32(i32 %15, i32 1)
  br label %16

16:                                               ; preds = %13, %9, %7, %4
  %.0 = phi i32 [ -101, %4 ], [ -1, %7 ], [ %12, %9 ], [ %., %13 ]
  ret i32 %.0
}